target datalayout = "e-m:e-p270:32:32-p271:32:32-p272:64:64-i64:64-i128:128-f80:128-n8:16:32:64-S128"
target triple = "x86_64-pc-linux-gnu"

%struct.option = type { i32, i32, ptr, ptr, ptr, ptr, i32, ptr, i64, ptr, i64, ptr }

@__const.cmd_refs.refs_usage = private unnamed_addr constant [3 x ptr] [ptr @.str, ptr @.str.1, ptr null], align 16
@.str.2 = private unnamed_addr constant [8 x i8] c"migrate\00", align 1
@.str.3 = private unnamed_addr constant [7 x i8] c"verify\00", align 1

; Function Attrs: nounwind uwtable
define dso_local i32 @cmd_refs(i32 noundef %0, ptr noundef %1, ptr noundef %2, ptr noundef %3) #0 {
  %5 = alloca i32, align 4
  %6 = alloca ptr, align 8
  %7 = alloca ptr, align 8
  %8 = alloca ptr, align 8
  %9 = alloca [3 x ptr], align 16
  %10 = alloca ptr, align 8
  %11 = alloca [3 x %struct.option], align 16
  store i32 %0, ptr %5, align 4, !tbaa !4
  store ptr %1, ptr %6, align 8, !tbaa !8
  store ptr %2, ptr %7, align 8, !tbaa !11
  store ptr %3, ptr %8, align 8, !tbaa !13
  call void @llvm.lifetime.start.p0(i64 24, ptr %9) #8
  call void @llvm.memcpy.p0.p0.i64(ptr align 16 %9, ptr align 16 @__const.cmd_refs.refs_usage, i64 24, i1 false)
  call void @llvm.lifetime.start.p0(i64 8, ptr %10) #8
  store ptr null, ptr %10, align 8, !tbaa !15
  call void @llvm.lifetime.start.p0(i64 264, ptr %11) #8
  call void @llvm.memset.p0.i64(ptr align 16 %11, i8 0, i64 264, i1 false)
  %12 = getelementptr inbounds nuw %struct.option, ptr %11, i32 0, i32 0
  store i32 4, ptr %12, align 8, !tbaa !16
  %13 = getelementptr inbounds nuw %struct.option, ptr %11, i32 0, i32 2
  store ptr @.str.2, ptr %13, align 8, !tbaa !19
  %14 = getelementptr inbounds nuw %struct.option, ptr %11, i32 0, i32 3
  store ptr %10, ptr %14, align 8, !tbaa !20
  %15 = getelementptr inbounds nuw %struct.option, ptr %11, i32 0, i32 11
  store ptr @cmd_refs_migrate, ptr %15, align 8, !tbaa !21
  %16 = getelementptr inbounds %struct.option, ptr %11, i64 1
  %17 = getelementptr inbounds nuw %struct.option, ptr %16, i32 0, i32 0
  store i32 4, ptr %17, align 8, !tbaa !16
  %18 = getelementptr inbounds nuw %struct.option, ptr %16, i32 0, i32 2
  store ptr @.str.3, ptr %18, align 8, !tbaa !19
  %19 = getelementptr inbounds nuw %struct.option, ptr %16, i32 0, i32 3
  store ptr %10, ptr %19, align 8, !tbaa !20
  %20 = getelementptr inbounds nuw %struct.option, ptr %16, i32 0, i32 11
  store ptr @cmd_refs_verify, ptr %20, align 8, !tbaa !21
  %21 = getelementptr inbounds %struct.option, ptr %11, i64 2
  %22 = getelementptr inbounds nuw %struct.option, ptr %21, i32 0, i32 0
  store i32 0, ptr %22, align 8, !tbaa !16
  %23 = load i32, ptr %5, align 4, !tbaa !4
  %24 = load ptr, ptr %6, align 8, !tbaa !8
  %25 = load ptr, ptr %7, align 8, !tbaa !11
  %26 = getelementptr inbounds [3 x %struct.option], ptr %11, i64 0, i64 0
  %27 = getelementptr inbounds [3 x ptr], ptr %9, i64 0, i64 0
  %28 = call i32 @parse_options(i32 noundef %23, ptr noundef %24, ptr noundef %25, ptr noundef %26, ptr noundef %27, i32 noundef 0)
  store i32 %28, ptr %5, align 4, !tbaa !4
  %29 = load ptr, ptr %10, align 8, !tbaa !15
  %30 = load i32, ptr %5, align 4, !tbaa !4
  %31 = load ptr, ptr %6, align 8, !tbaa !8
  %32 = load ptr, ptr %7, align 8, !tbaa !11
  %33 = load ptr, ptr %8, align 8, !tbaa !13
  %34 = call i32 %29(i32 noundef %30, ptr noundef %31, ptr noundef %32, ptr noundef %33)
  call void @llvm.lifetime.end.p0(i64 264, ptr %11) #8
  call void @llvm.lifetime.end.p0(i64 8, ptr %10) #8
  call void @llvm.lifetime.end.p0(i64 24, ptr %9) #8
  ret i32 %34
}