; Function Attrs: nounwind uwtable
define dso_local i32 @cmd_refs(i32 noundef %0, ptr noundef %1, ptr noundef %2, ptr noundef %3) local_unnamed_addr #0 {
  %5 = alloca [3 x ptr], align 16
  %6 = alloca ptr, align 8
  %7 = alloca [3 x %struct.option], align 16
  call void @llvm.lifetime.start.p0(i64 24, ptr nonnull %5) #8
  call void @llvm.memcpy.p0.p0.i64(ptr noundef nonnull align 16 dereferenceable(24) %5, ptr noundef nonnull align 16 dereferenceable(24) @__const.cmd_refs.refs_usage, i64 24, i1 false)
  call void @llvm.lifetime.start.p0(i64 8, ptr nonnull %6) #8
  store ptr null, ptr %6, align 8, !tbaa !4
  call void @llvm.lifetime.start.p0(i64 264, ptr nonnull %7) #8
  call void @llvm.memset.p0.i64(ptr noundef nonnull align 16 dereferenceable(264) %7, i8 0, i64 264, i1 false)
  store i32 4, ptr %7, align 16, !tbaa !8
  %8 = getelementptr inbounds nuw i8, ptr %7, i64 8
  store ptr @.str.2, ptr %8, align 8, !tbaa !13
  %9 = getelementptr inbounds nuw i8, ptr %7, i64 16
  store ptr %6, ptr %9, align 16, !tbaa !14
  %10 = getelementptr inbounds nuw i8, ptr %7, i64 80
  store ptr @cmd_refs_migrate, ptr %10, align 16, !tbaa !15
  %11 = getelementptr inbounds nuw i8, ptr %7, i64 88
  store i32 4, ptr %11, align 8, !tbaa !8
  %12 = getelementptr inbounds nuw i8, ptr %7, i64 96
  store ptr @.str.3, ptr %12, align 16, !tbaa !13
  %13 = getelementptr inbounds nuw i8, ptr %7, i64 104
  store ptr %6, ptr %13, align 8, !tbaa !14
  %14 = getelementptr inbounds nuw i8, ptr %7, i64 168
  store ptr @cmd_refs_verify, ptr %14, align 8, !tbaa !15
  %15 = call i32 @parse_options(i32 noundef %0, ptr noundef %1, ptr noundef %2, ptr noundef nonnull %7, ptr noundef nonnull %5, i32 noundef 0) #8
  %16 = load ptr, ptr %6, align 8, !tbaa !4
  %17 = call i32 %16(i32 noundef %15, ptr noundef %1, ptr noundef %2, ptr noundef %3) #8
  call void @llvm.lifetime.end.p0(i64 264, ptr nonnull %7) #8
  call void @llvm.lifetime.end.p0(i64 8, ptr nonnull %6) #8
  call void @llvm.lifetime.end.p0(i64 24, ptr nonnull %5) #8
  ret i32 %17
}